target datalayout = "e-m:e-p270:32:32-p271:32:32-p272:64:64-i64:64-i128:128-f80:128-n8:16:32:64-S128"
target triple = "x86_64-unknown-linux-gnu"

%struct.CPUArchState = type { [32 x i64], [32 x i64], [512 x i64], i64, i64, i64, i64, i64, i8, i64, i64, i64, [32 x i64], i64, %struct.float_status, i64, i64, i64, i64, i64, i64, i32, i32, i32, i32, i32, i64, i64, i32, i64, i64, ptr, ptr, i8, i64, i64, [8 x i8] }
%struct.float_status = type { i16, i8, i8, i8, i8, i8, i8, i8, i8, i8, i8, i8 }

; Function Attrs: nounwind sspstrong uwtable
define internal i32 @write_fcsr(ptr noundef %env, i32 noundef %csrno, i64 noundef %val) #0 {
entry:
  %env.addr = alloca ptr, align 8
  %csrno.addr = alloca i32, align 4
  %val.addr = alloca i64, align 8
  store ptr %env, ptr %env.addr, align 8
  store i32 %csrno, ptr %csrno.addr, align 4
  store i64 %val, ptr %val.addr, align 8
  %0 = load i64, ptr %val.addr, align 8
  %and = and i64 %0, 224
  %shr = lshr i64 %and, 5
  %1 = load ptr, ptr %env.addr, align 8
  %frm = getelementptr inbounds %struct.CPUArchState, ptr %1, i32 0, i32 13
  store i64 %shr, ptr %frm, align 8
  %2 = load ptr, ptr %env.addr, align 8
  %3 = load i64, ptr %val.addr, align 8
  %and1 = and i64 %3, 31
  %shr2 = lshr i64 %and1, 0
  call void @riscv_cpu_set_fflags(ptr noundef %2, i64 noundef %shr2)
  ret i32 -1
}