; Function Attrs: nounwind sspstrong uwtable
define internal noundef i32 @write_fcsr(ptr noundef initializes((4936, 4944)) %env, i32 %csrno, i64 noundef %val) #2 {
entry:
  %and = lshr i64 %val, 5
  %shr = and i64 %and, 7
  %frm = getelementptr inbounds nuw i8, ptr %env, i64 4936
  store i64 %shr, ptr %frm, align 8
  %and1 = and i64 %val, 31
  tail call void @riscv_cpu_set_fflags(ptr noundef %env, i64 noundef %and1) #11
  ret i32 -1
}